target datalayout = "e-m:e-p270:32:32-p271:32:32-p272:64:64-i64:64-i128:128-f80:128-n8:16:32:64-S128"
target triple = "x86_64-pc-linux-gnu"

%struct._GSList = type { ptr, ptr }
%struct.zb_direct_key_record_t = type { i32, [8 x i8], [8 x i8], [16 x i8], ptr }
%struct.uat_key_record_s = type { ptr, ptr, ptr, ptr }

@uat_key_records = internal global ptr null, align 8
@num_uat_key_records = internal global i32 0, align 4
@zbee_pc_keyring = internal global ptr null, align 8

; Function Attrs: alwaysinline nounwind
define internal ptr @memcpy.inline(ptr noalias %0, ptr noalias %1, i64 %2) #5 {
  %4 = alloca ptr, align 8
  %5 = alloca ptr, align 8
  %6 = alloca i64, align 8
  store ptr %0, ptr %4, align 8
  store ptr %1, ptr %5, align 8
  store i64 %2, ptr %6, align 8
  %7 = load ptr, ptr %4, align 8
  %8 = load ptr, ptr %5, align 8
  %9 = load i64, ptr %6, align 8
  %10 = load ptr, ptr %4, align 8
  %11 = call i64 @llvm.objectsize.i64.p0(ptr %10, i1 false, i1 true, i1 true)
  %12 = call ptr @__memcpy_chk(ptr noundef %7, ptr noundef %8, i64 noundef %9, i64 noundef %11) #13
  ret ptr %12
}

; Function Attrs: inlinehint nounwind null_pointer_is_valid sspstrong uwtable
define internal void @memcpy_reverse(ptr noundef %0, ptr noundef %1, i64 noundef %2) #9 {
  %4 = alloca ptr, align 8
  %5 = alloca ptr, align 8
  %6 = alloca i64, align 8
  %7 = alloca i64, align 8
  store ptr %0, ptr %4, align 8
  store ptr %1, ptr %5, align 8
  store i64 %2, ptr %6, align 8
  %8 = load i64, ptr %6, align 8
  %9 = sub i64 %8, 1
  store i64 %9, ptr %6, align 8
  call void @llvm.lifetime.start.p0(i64 8, ptr %7) #13
  store i64 0, ptr %7, align 8
  br label %10

10:                                               ; preds = %25, %3
  %11 = load i64, ptr %7, align 8
  %12 = load i64, ptr %6, align 8
  %13 = icmp ule i64 %11, %12
  br i1 %13, label %15, label %14

14:                                               ; preds = %10
  call void @llvm.lifetime.end.p0(i64 8, ptr %7) #13
  br label %28

15:                                               ; preds = %10
  %16 = load ptr, ptr %5, align 8
  %17 = load i64, ptr %6, align 8
  %18 = load i64, ptr %7, align 8
  %19 = sub i64 %17, %18
  %20 = getelementptr i8, ptr %16, i64 %19
  %21 = load i8, ptr %20, align 1
  %22 = load ptr, ptr %4, align 8
  %23 = load i64, ptr %7, align 8
  %24 = getelementptr i8, ptr %22, i64 %23
  store i8 %21, ptr %24, align 1
  br label %25

25:                                               ; preds = %15
  %26 = load i64, ptr %7, align 8
  %27 = add i64 %26, 1
  store i64 %27, ptr %7, align 8
  br label %10, !llvm.loop !17

28:                                               ; preds = %14
  ret void
}

; Function Attrs: null_pointer_is_valid sspstrong uwtable
define internal void @uat_key_record_post_update() #0 {
  %1 = alloca %struct.zb_direct_key_record_t, align 8
  %2 = alloca [8 x i8], align 1
  %3 = alloca [8 x i8], align 1
  %4 = alloca [16 x i8], align 16
  %5 = alloca ptr, align 8
  %6 = alloca ptr, align 8
  %7 = alloca i32, align 4
  %8 = alloca i8, align 1
  call void @llvm.lifetime.start.p0(i64 48, ptr %1) #13
  call void @llvm.lifetime.start.p0(i64 8, ptr %2) #13
  call void @llvm.lifetime.start.p0(i64 8, ptr %3) #13
  call void @llvm.lifetime.start.p0(i64 16, ptr %4) #13
  call void @llvm.lifetime.start.p0(i64 8, ptr %5) #13
  %9 = load ptr, ptr @zbee_pc_keyring, align 8
  store ptr %9, ptr %5, align 8
  br label %10

10:                                               ; preds = %30, %0
  %11 = load ptr, ptr %5, align 8
  %12 = icmp ne ptr %11, null
  br i1 %12, label %13, label %20

13:                                               ; preds = %10
  %14 = load ptr, ptr %5, align 8
  %15 = getelementptr inbounds nuw %struct._GSList, ptr %14, i32 0, i32 0
  %16 = load ptr, ptr %15, align 8
  %17 = getelementptr inbounds nuw %struct.zb_direct_key_record_t, ptr %16, i32 0, i32 0
  %18 = load i32, ptr %17, align 8
  %19 = icmp ugt i32 %18, 0
  br label %20

20:                                               ; preds = %13, %10
  %21 = phi i1 [ false, %10 ], [ %19, %13 ]
  br i1 %21, label %22, label %32

22:                                               ; preds = %20
  %23 = load ptr, ptr %5, align 8
  %24 = icmp ne ptr %23, null
  br i1 %24, label %25, label %29

25:                                               ; preds = %22
  %26 = load ptr, ptr %5, align 8
  %27 = getelementptr inbounds nuw %struct._GSList, ptr %26, i32 0, i32 1
  %28 = load ptr, ptr %27, align 8
  br label %30

29:                                               ; preds = %22
  br label %30

30:                                               ; preds = %29, %25
  %31 = phi ptr [ %28, %25 ], [ null, %29 ]
  store ptr %31, ptr %5, align 8
  br label %10, !llvm.loop !10

32:                                               ; preds = %20
  br label %33

33:                                               ; preds = %36, %32
  %34 = load ptr, ptr %5, align 8
  %35 = icmp ne ptr %34, null
  br i1 %35, label %36, label %45

36:                                               ; preds = %33
  call void @llvm.lifetime.start.p0(i64 8, ptr %6) #13
  %37 = load ptr, ptr %5, align 8
  %38 = getelementptr inbounds nuw %struct._GSList, ptr %37, i32 0, i32 1
  %39 = load ptr, ptr %38, align 8
  store ptr %39, ptr %6, align 8
  %40 = load ptr, ptr @zbee_pc_keyring, align 8
  %41 = load ptr, ptr %5, align 8
  %42 = call ptr @g_slist_remove_link(ptr noundef %40, ptr noundef %41)
  store ptr %42, ptr @zbee_pc_keyring, align 8
  %43 = load ptr, ptr %5, align 8
  call void @g_slist_free_full(ptr noundef %43, ptr noundef @zbd_free_key_record)
  %44 = load ptr, ptr %6, align 8
  store ptr %44, ptr %5, align 8
  call void @llvm.lifetime.end.p0(i64 8, ptr %6) #13
  br label %33, !llvm.loop !11

45:                                               ; preds = %33
  call void @llvm.lifetime.start.p0(i64 4, ptr %7) #13
  store i32 0, ptr %7, align 4
  br label %46

46:                                               ; preds = %114, %45
  %47 = load ptr, ptr @uat_key_records, align 8
  %48 = icmp ne ptr %47, null
  br i1 %48, label %49, label %53

49:                                               ; preds = %46
  %50 = load i32, ptr %7, align 4
  %51 = load i32, ptr @num_uat_key_records, align 4
  %52 = icmp ult i32 %50, %51
  br label %53

53:                                               ; preds = %49, %46
  %54 = phi i1 [ false, %46 ], [ %52, %49 ]
  br i1 %54, label %56, label %55

55:                                               ; preds = %53
  call void @llvm.lifetime.end.p0(i64 4, ptr %7) #13
  br label %117

56:                                               ; preds = %53
  call void @llvm.lifetime.start.p0(i64 1, ptr %8) #13
  %57 = load ptr, ptr @uat_key_records, align 8
  %58 = load i32, ptr %7, align 4
  %59 = zext i32 %58 to i64
  %60 = getelementptr %struct.uat_key_record_s, ptr %57, i64 %59
  %61 = getelementptr inbounds nuw %struct.uat_key_record_s, ptr %60, i32 0, i32 0
  %62 = load ptr, ptr %61, align 8
  %63 = getelementptr inbounds [8 x i8], ptr %2, i64 0, i64 0
  %64 = call zeroext i1 @zbd_parse_uat_hexline(ptr noundef %62, ptr noundef %63, i32 noundef 8)
  %65 = zext i1 %64 to i32
  %66 = load ptr, ptr @uat_key_records, align 8
  %67 = load i32, ptr %7, align 4
  %68 = zext i32 %67 to i64
  %69 = getelementptr %struct.uat_key_record_s, ptr %66, i64 %68
  %70 = getelementptr inbounds nuw %struct.uat_key_record_s, ptr %69, i32 0, i32 1
  %71 = load ptr, ptr %70, align 8
  %72 = getelementptr inbounds [8 x i8], ptr %3, i64 0, i64 0
  %73 = call zeroext i1 @zbd_parse_uat_hexline(ptr noundef %71, ptr noundef %72, i32 noundef 8)
  %74 = zext i1 %73 to i32
  %75 = or i32 %65, %74
  %76 = load ptr, ptr @uat_key_records, align 8
  %77 = load i32, ptr %7, align 4
  %78 = zext i32 %77 to i64
  %79 = getelementptr %struct.uat_key_record_s, ptr %76, i64 %78
  %80 = getelementptr inbounds nuw %struct.uat_key_record_s, ptr %79, i32 0, i32 2
  %81 = load ptr, ptr %80, align 8
  %82 = getelementptr inbounds [16 x i8], ptr %4, i64 0, i64 0
  %83 = call zeroext i1 @zbd_parse_uat_hexline(ptr noundef %81, ptr noundef %82, i32 noundef 16)
  %84 = zext i1 %83 to i32
  %85 = or i32 %75, %84
  %86 = icmp ne i32 %85, 0
  %87 = zext i1 %86 to i8
  store i8 %87, ptr %8, align 1
  %88 = load i8, ptr %8, align 1, !range !12, !noundef !13
  %89 = trunc i8 %88 to i1
  br i1 %89, label %90, label %113

90:                                               ; preds = %56
  %91 = getelementptr inbounds nuw %struct.zb_direct_key_record_t, ptr %1, i32 0, i32 0
  store i32 0, ptr %91, align 8
  %92 = load ptr, ptr @uat_key_records, align 8
  %93 = load i32, ptr %7, align 4
  %94 = zext i32 %93 to i64
  %95 = getelementptr %struct.uat_key_record_s, ptr %92, i64 %94
  %96 = getelementptr inbounds nuw %struct.uat_key_record_s, ptr %95, i32 0, i32 3
  %97 = load ptr, ptr %96, align 8
  %98 = call noalias ptr @g_strdup(ptr noundef %97)
  %99 = getelementptr inbounds nuw %struct.zb_direct_key_record_t, ptr %1, i32 0, i32 4
  store ptr %98, ptr %99, align 8
  %100 = getelementptr inbounds nuw %struct.zb_direct_key_record_t, ptr %1, i32 0, i32 1
  %101 = getelementptr inbounds [8 x i8], ptr %100, i64 0, i64 0
  %102 = getelementptr inbounds [8 x i8], ptr %2, i64 0, i64 0
  call void @memcpy_reverse(ptr noundef %101, ptr noundef %102, i64 noundef 8)
  %103 = getelementptr inbounds nuw %struct.zb_direct_key_record_t, ptr %1, i32 0, i32 2
  %104 = getelementptr inbounds [8 x i8], ptr %103, i64 0, i64 0
  %105 = getelementptr inbounds [8 x i8], ptr %3, i64 0, i64 0
  call void @memcpy_reverse(ptr noundef %104, ptr noundef %105, i64 noundef 8)
  %106 = getelementptr inbounds nuw %struct.zb_direct_key_record_t, ptr %1, i32 0, i32 3
  %107 = getelementptr inbounds [16 x i8], ptr %106, i64 0, i64 0
  %108 = getelementptr inbounds [16 x i8], ptr %4, i64 0, i64 0
  %109 = call ptr @memcpy.inline(ptr noundef %107, ptr noundef %108, i64 noundef 16) #13
  %110 = load ptr, ptr @zbee_pc_keyring, align 8
  %111 = call ptr @g_memdup2(ptr noundef %1, i64 noundef 48) #15
  %112 = call ptr @g_slist_append(ptr noundef %110, ptr noundef %111)
  store ptr %112, ptr @zbee_pc_keyring, align 8
  br label %113

113:                                              ; preds = %90, %56
  call void @llvm.lifetime.end.p0(i64 1, ptr %8) #13
  br label %114

114:                                              ; preds = %113
  %115 = load i32, ptr %7, align 4
  %116 = add i32 %115, 1
  store i32 %116, ptr %7, align 4
  br label %46, !llvm.loop !14

117:                                              ; preds = %55
  call void @llvm.lifetime.end.p0(i64 8, ptr %5) #13
  call void @llvm.lifetime.end.p0(i64 16, ptr %4) #13
  call void @llvm.lifetime.end.p0(i64 8, ptr %3) #13
  call void @llvm.lifetime.end.p0(i64 8, ptr %2) #13
  call void @llvm.lifetime.end.p0(i64 48, ptr %1) #13
  ret void
}