; Function Attrs: null_pointer_is_valid sspstrong uwtable
define internal void @uat_key_record_post_update() #0 {
  %1 = alloca %struct.zb_direct_key_record_t, align 8
  %2 = alloca [8 x i8], align 1
  %3 = alloca [8 x i8], align 1
  %4 = alloca [16 x i8], align 16
  call void @llvm.lifetime.start.p0(i64 48, ptr nonnull %1) #13
  call void @llvm.lifetime.start.p0(i64 8, ptr nonnull %2) #13
  call void @llvm.lifetime.start.p0(i64 8, ptr nonnull %3) #13
  call void @llvm.lifetime.start.p0(i64 16, ptr nonnull %4) #13
  %.022 = load ptr, ptr @zbee_pc_keyring, align 8
  %.not23 = icmp eq ptr %.022, null
  br i1 %.not23, label %.preheader, label %.lr.ph

.lr.ph:                                           ; preds = %0, %7
  %.024 = phi ptr [ %.0, %7 ], [ %.022, %0 ]
  %5 = load ptr, ptr %.024, align 8
  %6 = load i32, ptr %5, align 8
  %.not17 = icmp eq i32 %6, 0
  br i1 %.not17, label %.lr.ph29, label %7

7:                                                ; preds = %.lr.ph
  %8 = getelementptr inbounds nuw i8, ptr %.024, i64 8
  %.0 = load ptr, ptr %8, align 8
  %.not = icmp eq ptr %.0, null
  br i1 %.not, label %.preheader, label %.lr.ph, !llvm.loop !10

.preheader:                                       ; preds = %7, %.lr.ph29, %0
  %9 = load ptr, ptr @uat_key_records, align 8
  %10 = icmp ne ptr %9, null
  %11 = load i32, ptr @num_uat_key_records, align 4
  %12 = icmp ne i32 %11, 0
  %13 = select i1 %10, i1 %12, i1 false
  br i1 %13, label %.lr.ph31, label %._crit_edge

.lr.ph31:                                         ; preds = %.preheader
  %14 = getelementptr inbounds nuw i8, ptr %1, i64 40
  %15 = getelementptr inbounds nuw i8, ptr %1, i64 4
  %16 = getelementptr inbounds nuw i8, ptr %2, i64 8
  %17 = getelementptr inbounds nuw i8, ptr %1, i64 12
  %18 = getelementptr inbounds nuw i8, ptr %3, i64 8
  %19 = getelementptr inbounds nuw i8, ptr %1, i64 20
  br label %24

.lr.ph29:                                         ; preds = %.lr.ph, %.lr.ph29
  %.128 = phi ptr [ %21, %.lr.ph29 ], [ %.024, %.lr.ph ]
  %20 = getelementptr inbounds nuw i8, ptr %.128, i64 8
  %21 = load ptr, ptr %20, align 8
  %22 = load ptr, ptr @zbee_pc_keyring, align 8
  %23 = tail call ptr @g_slist_remove_link(ptr noundef %22, ptr noundef nonnull %.128)
  store ptr %23, ptr @zbee_pc_keyring, align 8
  tail call void @g_slist_free_full(ptr noundef nonnull %.128, ptr noundef nonnull @zbd_free_key_record)
  %.not18 = icmp eq ptr %21, null
  br i1 %.not18, label %.preheader, label %.lr.ph29, !llvm.loop !11

._crit_edge:                                      ; preds = %56, %.preheader
  call void @llvm.lifetime.end.p0(i64 16, ptr nonnull %4) #13
  call void @llvm.lifetime.end.p0(i64 8, ptr nonnull %3) #13
  call void @llvm.lifetime.end.p0(i64 8, ptr nonnull %2) #13
  call void @llvm.lifetime.end.p0(i64 48, ptr nonnull %1) #13
  ret void

24:                                               ; preds = %.lr.ph31, %56
  %25 = phi i32 [ %11, %.lr.ph31 ], [ %57, %56 ]
  %26 = phi ptr [ %9, %.lr.ph31 ], [ %58, %56 ]
  %indvars.iv = phi i64 [ 0, %.lr.ph31 ], [ %indvars.iv.next, %56 ]
  %27 = getelementptr %struct.uat_key_record_s, ptr %26, i64 %indvars.iv
  %28 = load ptr, ptr %27, align 8
  %29 = call fastcc zeroext i1 @zbd_parse_uat_hexline(ptr noundef %28, ptr noundef nonnull %2, i32 noundef 8)
  %30 = getelementptr %struct.uat_key_record_s, ptr %26, i64 %indvars.iv, i32 1
  %31 = load ptr, ptr %30, align 8
  %32 = call fastcc zeroext i1 @zbd_parse_uat_hexline(ptr noundef %31, ptr noundef nonnull %3, i32 noundef 8)
  %33 = or i1 %29, %32
  %34 = getelementptr %struct.uat_key_record_s, ptr %26, i64 %indvars.iv, i32 2
  %35 = load ptr, ptr %34, align 8
  %36 = call fastcc zeroext i1 @zbd_parse_uat_hexline(ptr noundef %35, ptr noundef nonnull %4, i32 noundef 16)
  %37 = or i1 %33, %36
  br i1 %37, label %38, label %56

38:                                               ; preds = %24
  store i32 0, ptr %1, align 8
  %39 = getelementptr %struct.uat_key_record_s, ptr %26, i64 %indvars.iv, i32 3
  %40 = load ptr, ptr %39, align 8
  %41 = call noalias ptr @g_strdup(ptr noundef %40)
  store ptr %41, ptr %14, align 8
  br label %42

42:                                               ; preds = %42, %38
  %.09.i = phi i64 [ 0, %38 ], [ %47, %42 ]
  %43 = xor i64 %.09.i, -1
  %44 = getelementptr i8, ptr %16, i64 %43
  %45 = load i8, ptr %44, align 1
  %46 = getelementptr i8, ptr %15, i64 %.09.i
  store i8 %45, ptr %46, align 1
  %47 = add nuw nsw i64 %.09.i, 1
  %exitcond.not.i = icmp eq i64 %47, 8
  br i1 %exitcond.not.i, label %memcpy_reverse.exit, label %42, !llvm.loop !12

memcpy_reverse.exit:                              ; preds = %42, %memcpy_reverse.exit
  %.09.i19 = phi i64 [ %52, %memcpy_reverse.exit ], [ 0, %42 ]
  %48 = xor i64 %.09.i19, -1
  %49 = getelementptr i8, ptr %18, i64 %48
  %50 = load i8, ptr %49, align 1
  %51 = getelementptr i8, ptr %17, i64 %.09.i19
  store i8 %50, ptr %51, align 1
  %52 = add nuw nsw i64 %.09.i19, 1
  %exitcond.not.i20 = icmp eq i64 %52, 8
  br i1 %exitcond.not.i20, label %memcpy_reverse.exit21, label %memcpy_reverse.exit, !llvm.loop !12

memcpy_reverse.exit21:                            ; preds = %memcpy_reverse.exit
  call void @llvm.memcpy.p0.p0.i64(ptr noundef nonnull align 4 dereferenceable(16) %19, ptr noundef nonnull align 16 dereferenceable(16) %4, i64 noundef 16, i1 noundef false) #13
  %53 = load ptr, ptr @zbee_pc_keyring, align 8
  %54 = call dereferenceable_or_null(48) ptr @g_memdup2(ptr noundef nonnull %1, i64 noundef 48) #14
  %55 = call ptr @g_slist_append(ptr noundef %53, ptr noundef %54)
  store ptr %55, ptr @zbee_pc_keyring, align 8
  %.pre = load ptr, ptr @uat_key_records, align 8
  %.pre33 = load i32, ptr @num_uat_key_records, align 4
  br label %56

56:                                               ; preds = %memcpy_reverse.exit21, %24
  %57 = phi i32 [ %.pre33, %memcpy_reverse.exit21 ], [ %25, %24 ]
  %58 = phi ptr [ %.pre, %memcpy_reverse.exit21 ], [ %26, %24 ]
  %indvars.iv.next = add nuw nsw i64 %indvars.iv, 1
  %59 = icmp ne ptr %58, null
  %60 = zext i32 %57 to i64
  %61 = icmp samesign ult i64 %indvars.iv.next, %60
  %62 = select i1 %59, i1 %61, i1 false
  br i1 %62, label %24, label %._crit_edge, !llvm.loop !13
}